; Function Attrs: mustprogress uwtable
define hidden void @_Z1Dd(double noundef %0) local_unnamed_addr #3 {
  %2 = load ptr, ptr @_ZL8g_z3_log, align 8, !tbaa !3
  %3 = tail call noundef nonnull align 8 dereferenceable(8) ptr @_ZSt16__ostream_insertIcSt11char_traitsIcEERSt13basic_ostreamIT_T0_ES6_PKS3_l(ptr noundef nonnull align 8 dereferenceable(8) %2, ptr noundef nonnull @.str.6, i64 noundef 2)
  %4 = tail call noundef nonnull align 8 dereferenceable(8) ptr @_ZNSo9_M_insertIdEERSoT_(ptr noundef nonnull align 8 dereferenceable(8) %2, double noundef %0)
  %5 = load ptr, ptr %4, align 8, !tbaa !9
  %6 = getelementptr i8, ptr %5, i64 -24
  %7 = load i64, ptr %6, align 8
  %8 = getelementptr inbounds i8, ptr %4, i64 %7
  %9 = getelementptr inbounds nuw i8, ptr %8, i64 240
  %10 = load ptr, ptr %9, align 8, !tbaa !22
  %.not.i.i.i = icmp eq ptr %10, null
  br i1 %.not.i.i.i, label %11, label %_ZSt13__check_facetISt5ctypeIcEERKT_PS3_.exit.i.i

11:                                               ; preds = %1
  tail call void @_ZSt16__throw_bad_castv() #11
  unreachable

_ZSt13__check_facetISt5ctypeIcEERKT_PS3_.exit.i.i: ; preds = %1
  %12 = getelementptr inbounds nuw i8, ptr %10, i64 56
  %13 = load i8, ptr %12, align 8, !tbaa !29
  %.not.i1.i.i = icmp eq i8 %13, 0
  br i1 %.not.i1.i.i, label %17, label %14

14:                                               ; preds = %_ZSt13__check_facetISt5ctypeIcEERKT_PS3_.exit.i.i
  %15 = getelementptr inbounds nuw i8, ptr %10, i64 67
  %16 = load i8, ptr %15, align 1, !tbaa !8
  br label %_ZSt4endlIcSt11char_traitsIcEERSt13basic_ostreamIT_T0_ES6_.exit

17:                                               ; preds = %_ZSt13__check_facetISt5ctypeIcEERKT_PS3_.exit.i.i
  tail call void @_ZNKSt5ctypeIcE13_M_widen_initEv(ptr noundef nonnull align 8 dereferenceable(570) %10)
  %18 = load ptr, ptr %10, align 8, !tbaa !9
  %19 = getelementptr inbounds nuw i8, ptr %18, i64 48
  %20 = load ptr, ptr %19, align 8
  %21 = tail call noundef signext i8 %20(ptr noundef nonnull align 8 dereferenceable(570) %10, i8 noundef signext 10)
  br label %_ZSt4endlIcSt11char_traitsIcEERSt13basic_ostreamIT_T0_ES6_.exit

_ZSt4endlIcSt11char_traitsIcEERSt13basic_ostreamIT_T0_ES6_.exit: ; preds = %14, %17
  %.0.i.i.i = phi i8 [ %16, %14 ], [ %21, %17 ]
  %22 = tail call noundef nonnull align 8 dereferenceable(8) ptr @_ZNSo3putEc(ptr noundef nonnull align 8 dereferenceable(8) %4, i8 noundef signext %.0.i.i.i)
  %23 = tail call noundef nonnull align 8 dereferenceable(8) ptr @_ZNSo5flushEv(ptr noundef nonnull align 8 dereferenceable(8) %22)
  ret void
}